target datalayout = "e-m:e-p270:32:32-p271:32:32-p272:64:64-i64:64-i128:128-f80:128-n8:16:32:64-S128"
target triple = "x86_64-pc-linux-gnu"

%struct._packet_info = type { ptr, ptr, i32, i32, %struct.nstime_t, %struct.nstime_t, %struct.nstime_t, i8, ptr, ptr, ptr, ptr, %struct._address, %struct._address, %struct._address, %struct._address, %struct._address, %struct._address, i32, ptr, i8, [3 x i8], %struct.anon, i32, i32, i32, i32, ptr, i8, ptr, ptr, i16, i16, i32, i32, i16, i32, i32, ptr, ptr, ptr, i8, i8, i16, i16, i16, i32, i16, i16, ptr, ptr, ptr, ptr, ptr, i32, i32 }
%struct.nstime_t = type { i64, i32 }
%struct._address = type { i32, i32, ptr, ptr }
%struct.anon = type { i8, [3 x i8] }
%struct.tds_conv_info_t = type { ptr, i32, i32, i32, i32, i32, i32, i32, i32, i8 }
%struct._netlib_data = type { i32, [256 x ptr] }
%struct.tds_cursor_info_t = type { ptr, i32, ptr, i32 }
%struct._frame_data = type <{ i32, i32, i32, i32, i32, [4 x i8], i64, ptr, ptr, ptr, i8, i16, [5 x i8], %struct.nstime_t, %struct.nstime_t, i32, i32 }>
%struct.tds_conv_cursor_info_t = type { ptr, ptr }
%struct._tds_col = type { ptr, i32, i32, i8, i8, i8 }

@hf_tds_row_field = internal global i32 0, align 4
@proto_tds = internal global i32 0, align 4

; Function Attrs: nounwind null_pointer_is_valid sspstrong uwtable
define internal void @dissect_tds_type_info_minimal(i8 noundef zeroext %0, i32 noundef %1, ptr noundef %2) #5 {
  %4 = alloca i8, align 1
  %5 = alloca i32, align 4
  %6 = alloca ptr, align 8
  store i8 %0, ptr %4, align 1
  store i32 %1, ptr %5, align 4
  store ptr %2, ptr %6, align 8
  %7 = load ptr, ptr %6, align 8
  store i8 0, ptr %7, align 1
  %8 = load i8, ptr %4, align 1
  %9 = zext i8 %8 to i32
  switch i32 %9, label %18 [
    i32 167, label %10
    i32 165, label %10
    i32 231, label %10
    i32 241, label %16
    i32 240, label %16
  ]

10:                                               ; preds = %3, %3, %3
  %11 = load i32, ptr %5, align 4
  %12 = icmp eq i32 %11, 65535
  br i1 %12, label %13, label %15

13:                                               ; preds = %10
  %14 = load ptr, ptr %6, align 8
  store i8 1, ptr %14, align 1
  br label %15

15:                                               ; preds = %13, %10
  br label %18

16:                                               ; preds = %3, %3
  %17 = load ptr, ptr %6, align 8
  store i8 1, ptr %17, align 1
  br label %18

18:                                               ; preds = %3, %16, %15
  ret void
}

; Function Attrs: null_pointer_is_valid sspstrong uwtable
define internal i32 @dissect_tds_row_token(ptr noundef %0, ptr noundef %1, ptr noundef %2, i32 noundef %3, ptr noundef %4, ptr noundef %5) #0 {
  %7 = alloca ptr, align 8
  %8 = alloca ptr, align 8
  %9 = alloca ptr, align 8
  %10 = alloca i32, align 4
  %11 = alloca ptr, align 8
  %12 = alloca ptr, align 8
  %13 = alloca i32, align 4
  %14 = alloca i32, align 4
  %15 = alloca i32, align 4
  %16 = alloca i8, align 1
  %17 = alloca ptr, align 8
  %18 = alloca ptr, align 8
  store ptr %0, ptr %7, align 8
  store ptr %1, ptr %8, align 8
  store ptr %2, ptr %9, align 8
  store i32 %3, ptr %10, align 4
  store ptr %4, ptr %11, align 8
  store ptr %5, ptr %12, align 8
  call void @llvm.lifetime.start.p0(i64 4, ptr %13) #11
  %19 = load i32, ptr %10, align 4
  store i32 %19, ptr %13, align 4
  call void @llvm.lifetime.start.p0(i64 4, ptr %14) #11
  call void @llvm.lifetime.start.p0(i64 4, ptr %15) #11
  call void @llvm.lifetime.start.p0(i64 1, ptr %16) #11
  store i8 0, ptr %16, align 1
  call void @llvm.lifetime.start.p0(i64 8, ptr %17) #11
  %20 = load ptr, ptr %8, align 8
  %21 = getelementptr inbounds nuw %struct._packet_info, ptr %20, i32 0, i32 8
  %22 = load ptr, ptr %21, align 8
  %23 = getelementptr inbounds nuw %struct._frame_data, ptr %22, i32 0, i32 11
  %24 = load i16, ptr %23, align 1
  %25 = lshr i16 %24, 3
  %26 = and i16 %25, 1
  %27 = zext i16 %26 to i32
  %28 = icmp ne i32 %27, 0
  br i1 %28, label %52, label %29

29:                                               ; preds = %6
  %30 = load ptr, ptr %12, align 8
  %31 = getelementptr inbounds nuw %struct.tds_conv_info_t, ptr %30, i32 0, i32 0
  %32 = load ptr, ptr %31, align 8
  %33 = icmp ne ptr %32, null
  br i1 %33, label %34, label %51

34:                                               ; preds = %29
  %35 = load ptr, ptr %12, align 8
  %36 = getelementptr inbounds nuw %struct.tds_conv_info_t, ptr %35, i32 0, i32 0
  %37 = load ptr, ptr %36, align 8
  %38 = getelementptr inbounds nuw %struct.tds_conv_cursor_info_t, ptr %37, i32 0, i32 0
  %39 = load ptr, ptr %38, align 8
  %40 = icmp ne ptr %39, null
  br i1 %40, label %41, label %51

41:                                               ; preds = %34
  call void @llvm.lifetime.start.p0(i64 8, ptr %18) #11
  %42 = load ptr, ptr %12, align 8
  %43 = getelementptr inbounds nuw %struct.tds_conv_info_t, ptr %42, i32 0, i32 0
  %44 = load ptr, ptr %43, align 8
  %45 = getelementptr inbounds nuw %struct.tds_conv_cursor_info_t, ptr %44, i32 0, i32 0
  %46 = load ptr, ptr %45, align 8
  store ptr %46, ptr %18, align 8
  %47 = call ptr @wmem_file_scope()
  %48 = load ptr, ptr %8, align 8
  %49 = load i32, ptr @proto_tds, align 4
  %50 = load ptr, ptr %18, align 8
  call void @p_add_proto_data(ptr noundef %47, ptr noundef %48, i32 noundef %49, i32 noundef 0, ptr noundef %50)
  call void @llvm.lifetime.end.p0(i64 8, ptr %18) #11
  br label %51

51:                                               ; preds = %41, %34, %29
  br label %52

52:                                               ; preds = %51, %6
  %53 = call ptr @wmem_file_scope()
  %54 = load ptr, ptr %8, align 8
  %55 = load i32, ptr @proto_tds, align 4
  %56 = call ptr @p_get_proto_data(ptr noundef %53, ptr noundef %54, i32 noundef %55, i32 noundef 0)
  store ptr %56, ptr %17, align 8
  %57 = load ptr, ptr %17, align 8
  %58 = icmp ne ptr %57, null
  br i1 %58, label %59, label %69

59:                                               ; preds = %52
  %60 = load ptr, ptr %17, align 8
  %61 = getelementptr inbounds nuw %struct.tds_cursor_info_t, ptr %60, i32 0, i32 3
  %62 = load i32, ptr %61, align 8
  %63 = and i32 %62, 4
  %64 = icmp ne i32 %63, 0
  br i1 %64, label %65, label %69

65:                                               ; preds = %59
  %66 = load ptr, ptr %17, align 8
  %67 = getelementptr inbounds nuw %struct.tds_cursor_info_t, ptr %66, i32 0, i32 2
  %68 = load ptr, ptr %67, align 8
  store ptr %68, ptr %9, align 8
  br label %69

69:                                               ; preds = %65, %59, %52
  store i32 0, ptr %14, align 4
  br label %70

70:                                               ; preds = %123, %69
  %71 = load i32, ptr %14, align 4
  %72 = load ptr, ptr %9, align 8
  %73 = getelementptr inbounds nuw %struct._netlib_data, ptr %72, i32 0, i32 0
  %74 = load i32, ptr %73, align 8
  %75 = icmp ult i32 %71, %74
  br i1 %75, label %76, label %126

76:                                               ; preds = %70
  %77 = load ptr, ptr %9, align 8
  %78 = getelementptr inbounds nuw %struct._netlib_data, ptr %77, i32 0, i32 1
  %79 = load i32, ptr %14, align 4
  %80 = zext i32 %79 to i64
  %81 = getelementptr [256 x ptr], ptr %78, i64 0, i64 %80
  %82 = load ptr, ptr %81, align 8
  %83 = getelementptr inbounds nuw %struct._tds_col, ptr %82, i32 0, i32 3
  %84 = load i8, ptr %83, align 8
  %85 = zext i8 %84 to i32
  store i32 %85, ptr %15, align 4
  %86 = load i32, ptr %15, align 4
  %87 = trunc i32 %86 to i8
  %88 = load ptr, ptr %9, align 8
  %89 = getelementptr inbounds nuw %struct._netlib_data, ptr %88, i32 0, i32 1
  %90 = load i32, ptr %14, align 4
  %91 = zext i32 %90 to i64
  %92 = getelementptr [256 x ptr], ptr %89, i64 0, i64 %91
  %93 = load ptr, ptr %92, align 8
  %94 = getelementptr inbounds nuw %struct._tds_col, ptr %93, i32 0, i32 1
  %95 = load i32, ptr %94, align 8
  call void @dissect_tds_type_info_minimal(i8 noundef zeroext %87, i32 noundef %95, ptr noundef %16)
  %96 = load ptr, ptr %7, align 8
  %97 = load ptr, ptr %8, align 8
  %98 = load ptr, ptr %11, align 8
  %99 = load i32, ptr @hf_tds_row_field, align 4
  %100 = load ptr, ptr %12, align 8
  %101 = load i32, ptr %15, align 4
  %102 = trunc i32 %101 to i8
  %103 = load ptr, ptr %9, align 8
  %104 = getelementptr inbounds nuw %struct._netlib_data, ptr %103, i32 0, i32 1
  %105 = load i32, ptr %14, align 4
  %106 = zext i32 %105 to i64
  %107 = getelementptr [256 x ptr], ptr %104, i64 0, i64 %106
  %108 = load ptr, ptr %107, align 8
  %109 = getelementptr inbounds nuw %struct._tds_col, ptr %108, i32 0, i32 5
  %110 = load i8, ptr %109, align 2
  %111 = load i8, ptr %16, align 1, !range !6, !noundef !7
  %112 = trunc i8 %111 to i1
  %113 = load i32, ptr %14, align 4
  %114 = add i32 %113, 1
  %115 = load ptr, ptr %9, align 8
  %116 = getelementptr inbounds nuw %struct._netlib_data, ptr %115, i32 0, i32 1
  %117 = load i32, ptr %14, align 4
  %118 = zext i32 %117 to i64
  %119 = getelementptr [256 x ptr], ptr %116, i64 0, i64 %118
  %120 = load ptr, ptr %119, align 8
  %121 = getelementptr inbounds nuw %struct._tds_col, ptr %120, i32 0, i32 0
  %122 = load ptr, ptr %121, align 8
  call void @dissect_tds_type_varbyte(ptr noundef %96, ptr noundef %13, ptr noundef %97, ptr noundef %98, i32 noundef %99, ptr noundef %100, i8 noundef zeroext %102, i8 noundef zeroext %110, i1 noundef zeroext %112, i32 noundef %114, ptr noundef %122)
  br label %123

123:                                              ; preds = %76
  %124 = load i32, ptr %14, align 4
  %125 = add i32 %124, 1
  store i32 %125, ptr %14, align 4
  br label %70, !llvm.loop !36

126:                                              ; preds = %70
  %127 = load i32, ptr %13, align 4
  %128 = load i32, ptr %10, align 4
  %129 = sub i32 %127, %128
  call void @llvm.lifetime.end.p0(i64 8, ptr %17) #11
  call void @llvm.lifetime.end.p0(i64 1, ptr %16) #11
  call void @llvm.lifetime.end.p0(i64 4, ptr %15) #11
  call void @llvm.lifetime.end.p0(i64 4, ptr %14) #11
  call void @llvm.lifetime.end.p0(i64 4, ptr %13) #11
  ret i32 %129
}