; Function Attrs: null_pointer_is_valid sspstrong uwtable
define internal fastcc i32 @dissect_tds_row_token(ptr noundef nonnull %0, ptr noundef %1, ptr noundef readonly captures(none) %2, i32 noundef %3, ptr noundef %4, ptr noundef readonly captures(none) %5) unnamed_addr #0 {
  %7 = alloca i32, align 4
  call void @llvm.lifetime.start.p0(i64 4, ptr nonnull %7) #13
  store i32 %3, ptr %7, align 4
  %8 = getelementptr inbounds nuw i8, ptr %1, i64 80
  %9 = load ptr, ptr %8, align 8
  %10 = getelementptr inbounds nuw i8, ptr %9, i64 57
  %11 = load i16, ptr %10, align 1
  %12 = and i16 %11, 8
  %.not = icmp eq i16 %12, 0
  br i1 %.not, label %13, label %20

13:                                               ; preds = %6
  %14 = load ptr, ptr %5, align 8
  %.not33 = icmp eq ptr %14, null
  br i1 %.not33, label %20, label %15

15:                                               ; preds = %13
  %16 = load ptr, ptr %14, align 8
  %.not34 = icmp eq ptr %16, null
  br i1 %.not34, label %20, label %17

17:                                               ; preds = %15
  %18 = tail call ptr @wmem_file_scope()
  %19 = load i32, ptr @proto_tds, align 4
  tail call void @p_add_proto_data(ptr noundef %18, ptr noundef %1, i32 noundef %19, i32 noundef 0, ptr noundef nonnull %16)
  br label %20

20:                                               ; preds = %13, %15, %17, %6
  %21 = tail call ptr @wmem_file_scope()
  %22 = load i32, ptr @proto_tds, align 4
  %23 = tail call ptr @p_get_proto_data(ptr noundef %21, ptr noundef %1, i32 noundef %22, i32 noundef 0)
  %.not35 = icmp eq ptr %23, null
  br i1 %.not35, label %31, label %24

24:                                               ; preds = %20
  %25 = getelementptr inbounds nuw i8, ptr %23, i64 24
  %26 = load i32, ptr %25, align 8
  %27 = and i32 %26, 4
  %.not36 = icmp eq i32 %27, 0
  br i1 %.not36, label %31, label %28

28:                                               ; preds = %24
  %29 = getelementptr inbounds nuw i8, ptr %23, i64 16
  %30 = load ptr, ptr %29, align 8
  br label %31

31:                                               ; preds = %28, %24, %20
  %.0 = phi ptr [ %30, %28 ], [ %2, %24 ], [ %2, %20 ]
  %32 = load i32, ptr %.0, align 8
  %.not39 = icmp eq i32 %32, 0
  br i1 %.not39, label %._crit_edge, label %.lr.ph

.lr.ph:                                           ; preds = %31
  %33 = getelementptr inbounds nuw i8, ptr %.0, i64 8
  br label %34

34:                                               ; preds = %.lr.ph, %dissect_tds_type_info_minimal.exit
  %indvars.iv = phi i64 [ 0, %.lr.ph ], [ %indvars.iv.next, %dissect_tds_type_info_minimal.exit ]
  %35 = getelementptr [256 x ptr], ptr %33, i64 0, i64 %indvars.iv
  %36 = load ptr, ptr %35, align 8
  %37 = getelementptr inbounds nuw i8, ptr %36, i64 16
  %38 = load i8, ptr %37, align 8
  switch i8 %38, label %dissect_tds_type_info_minimal.exit [
    i8 -89, label %39
    i8 -91, label %39
    i8 -25, label %39
    i8 -15, label %.sink.split.i
    i8 -16, label %.sink.split.i
  ]

39:                                               ; preds = %34, %34, %34
  %40 = getelementptr inbounds nuw i8, ptr %36, i64 8
  %41 = load i32, ptr %40, align 8
  %42 = icmp eq i32 %41, 65535
  br i1 %42, label %.sink.split.i, label %dissect_tds_type_info_minimal.exit

.sink.split.i:                                    ; preds = %39, %34, %34
  br label %dissect_tds_type_info_minimal.exit

dissect_tds_type_info_minimal.exit:               ; preds = %34, %39, %.sink.split.i
  %.037 = phi i1 [ false, %34 ], [ true, %.sink.split.i ], [ false, %39 ]
  %43 = load i32, ptr @hf_tds_row_field, align 4
  %44 = getelementptr inbounds nuw i8, ptr %36, i64 18
  %45 = load i8, ptr %44, align 2
  %indvars.iv.next = add nuw nsw i64 %indvars.iv, 1
  %46 = load ptr, ptr %36, align 8
  %47 = trunc nuw i64 %indvars.iv.next to i32
  call fastcc void @dissect_tds_type_varbyte(ptr noundef %0, ptr noundef nonnull %7, ptr noundef %1, ptr noundef %4, i32 noundef %43, ptr noundef %5, i8 noundef zeroext %38, i8 noundef zeroext %45, i1 noundef zeroext %.037, i32 noundef %47, ptr noundef %46)
  %48 = load i32, ptr %.0, align 8
  %49 = zext i32 %48 to i64
  %50 = icmp samesign ult i64 %indvars.iv.next, %49
  br i1 %50, label %34, label %._crit_edge.loopexit, !llvm.loop !45

._crit_edge.loopexit:                             ; preds = %dissect_tds_type_info_minimal.exit
  %.pre = load i32, ptr %7, align 4
  br label %._crit_edge

._crit_edge:                                      ; preds = %._crit_edge.loopexit, %31
  %51 = phi i32 [ %.pre, %._crit_edge.loopexit ], [ %3, %31 ]
  %52 = sub i32 %51, %3
  call void @llvm.lifetime.end.p0(i64 4, ptr nonnull %7) #13
  ret i32 %52
}